target datalayout = "e-m:e-p270:32:32-p271:32:32-p272:64:64-i64:64-i128:128-f80:128-n8:16:32:64-S128"
target triple = "x86_64-pc-linux-gnu"

%struct.Vec_Int_t_ = type { i32, i32, ptr }

; Function Attrs: inlinehint nounwind uwtable
define internal void @Vec_IntGrow(ptr noundef %0, i32 noundef %1) #3 {
  %3 = alloca ptr, align 8
  %4 = alloca i32, align 4
  store ptr %0, ptr %3, align 8, !tbaa !19
  store i32 %1, ptr %4, align 4, !tbaa !8
  %5 = load ptr, ptr %3, align 8, !tbaa !19
  %6 = getelementptr inbounds nuw %struct.Vec_Int_t_, ptr %5, i32 0, i32 0
  %7 = load i32, ptr %6, align 8, !tbaa !28
  %8 = load i32, ptr %4, align 4, !tbaa !8
  %9 = icmp sge i32 %7, %8
  br i1 %9, label %10, label %11

10:                                               ; preds = %2
  br label %36

11:                                               ; preds = %2
  %12 = load ptr, ptr %3, align 8, !tbaa !19
  %13 = getelementptr inbounds nuw %struct.Vec_Int_t_, ptr %12, i32 0, i32 2
  %14 = load ptr, ptr %13, align 8, !tbaa !29
  %15 = icmp ne ptr %14, null
  br i1 %15, label %16, label %24

16:                                               ; preds = %11
  %17 = load ptr, ptr %3, align 8, !tbaa !19
  %18 = getelementptr inbounds nuw %struct.Vec_Int_t_, ptr %17, i32 0, i32 2
  %19 = load ptr, ptr %18, align 8, !tbaa !29
  %20 = load i32, ptr %4, align 4, !tbaa !8
  %21 = sext i32 %20 to i64
  %22 = mul i64 4, %21
  %23 = call ptr @realloc(ptr noundef %19, i64 noundef %22) #16
  br label %29

24:                                               ; preds = %11
  %25 = load i32, ptr %4, align 4, !tbaa !8
  %26 = sext i32 %25 to i64
  %27 = mul i64 4, %26
  %28 = call noalias ptr @malloc(i64 noundef %27) #14
  br label %29

29:                                               ; preds = %24, %16
  %30 = phi ptr [ %23, %16 ], [ %28, %24 ]
  %31 = load ptr, ptr %3, align 8, !tbaa !19
  %32 = getelementptr inbounds nuw %struct.Vec_Int_t_, ptr %31, i32 0, i32 2
  store ptr %30, ptr %32, align 8, !tbaa !29
  %33 = load i32, ptr %4, align 4, !tbaa !8
  %34 = load ptr, ptr %3, align 8, !tbaa !19
  %35 = getelementptr inbounds nuw %struct.Vec_Int_t_, ptr %34, i32 0, i32 0
  store i32 %33, ptr %35, align 8, !tbaa !28
  br label %36

36:                                               ; preds = %29, %10
  ret void
}

; Function Attrs: inlinehint nounwind uwtable
define internal i32 @Vec_IntEntry(ptr noundef %0, i32 noundef %1) #3 {
  %3 = alloca ptr, align 8
  %4 = alloca i32, align 4
  store ptr %0, ptr %3, align 8, !tbaa !19
  store i32 %1, ptr %4, align 4, !tbaa !8
  %5 = load ptr, ptr %3, align 8, !tbaa !19
  %6 = getelementptr inbounds nuw %struct.Vec_Int_t_, ptr %5, i32 0, i32 2
  %7 = load ptr, ptr %6, align 8, !tbaa !29
  %8 = load i32, ptr %4, align 4, !tbaa !8
  %9 = sext i32 %8 to i64
  %10 = getelementptr inbounds i32, ptr %7, i64 %9
  %11 = load i32, ptr %10, align 4, !tbaa !8
  ret i32 %11
}

; Function Attrs: inlinehint nounwind uwtable
define internal void @Abc_TtSetBit(ptr noundef %0, i32 noundef %1) #3 {
  %3 = alloca ptr, align 8
  %4 = alloca i32, align 4
  store ptr %0, ptr %3, align 8, !tbaa !3
  store i32 %1, ptr %4, align 4, !tbaa !8
  %5 = load i32, ptr %4, align 4, !tbaa !8
  %6 = and i32 %5, 63
  %7 = zext i32 %6 to i64
  %8 = shl i64 1, %7
  %9 = load ptr, ptr %3, align 8, !tbaa !3
  %10 = load i32, ptr %4, align 4, !tbaa !8
  %11 = ashr i32 %10, 6
  %12 = sext i32 %11 to i64
  %13 = getelementptr inbounds i64, ptr %9, i64 %12
  %14 = load i64, ptr %13, align 8, !tbaa !13
  %15 = or i64 %14, %8
  store i64 %15, ptr %13, align 8, !tbaa !13
  ret void
}

; Function Attrs: inlinehint nounwind uwtable
define internal void @Vec_IntPush(ptr noundef %0, i32 noundef %1) #3 {
  %3 = alloca ptr, align 8
  %4 = alloca i32, align 4
  store ptr %0, ptr %3, align 8, !tbaa !19
  store i32 %1, ptr %4, align 4, !tbaa !8
  %5 = load ptr, ptr %3, align 8, !tbaa !19
  %6 = getelementptr inbounds nuw %struct.Vec_Int_t_, ptr %5, i32 0, i32 1
  %7 = load i32, ptr %6, align 4, !tbaa !26
  %8 = load ptr, ptr %3, align 8, !tbaa !19
  %9 = getelementptr inbounds nuw %struct.Vec_Int_t_, ptr %8, i32 0, i32 0
  %10 = load i32, ptr %9, align 8, !tbaa !28
  %11 = icmp eq i32 %7, %10
  br i1 %11, label %12, label %26

12:                                               ; preds = %2
  %13 = load ptr, ptr %3, align 8, !tbaa !19
  %14 = getelementptr inbounds nuw %struct.Vec_Int_t_, ptr %13, i32 0, i32 0
  %15 = load i32, ptr %14, align 8, !tbaa !28
  %16 = icmp slt i32 %15, 16
  br i1 %16, label %17, label %19

17:                                               ; preds = %12
  %18 = load ptr, ptr %3, align 8, !tbaa !19
  call void @Vec_IntGrow(ptr noundef %18, i32 noundef 16)
  br label %25

19:                                               ; preds = %12
  %20 = load ptr, ptr %3, align 8, !tbaa !19
  %21 = load ptr, ptr %3, align 8, !tbaa !19
  %22 = getelementptr inbounds nuw %struct.Vec_Int_t_, ptr %21, i32 0, i32 0
  %23 = load i32, ptr %22, align 8, !tbaa !28
  %24 = mul nsw i32 2, %23
  call void @Vec_IntGrow(ptr noundef %20, i32 noundef %24)
  br label %25

25:                                               ; preds = %19, %17
  br label %26

26:                                               ; preds = %25, %2
  %27 = load i32, ptr %4, align 4, !tbaa !8
  %28 = load ptr, ptr %3, align 8, !tbaa !19
  %29 = getelementptr inbounds nuw %struct.Vec_Int_t_, ptr %28, i32 0, i32 2
  %30 = load ptr, ptr %29, align 8, !tbaa !29
  %31 = load ptr, ptr %3, align 8, !tbaa !19
  %32 = getelementptr inbounds nuw %struct.Vec_Int_t_, ptr %31, i32 0, i32 1
  %33 = load i32, ptr %32, align 4, !tbaa !26
  %34 = add nsw i32 %33, 1
  store i32 %34, ptr %32, align 4, !tbaa !26
  %35 = sext i32 %33 to i64
  %36 = getelementptr inbounds i32, ptr %30, i64 %35
  store i32 %27, ptr %36, align 4, !tbaa !8
  ret void
}

; Function Attrs: inlinehint nounwind uwtable
define internal i32 @Vec_IntSize(ptr noundef %0) #3 {
  %2 = alloca ptr, align 8
  store ptr %0, ptr %2, align 8, !tbaa !19
  %3 = load ptr, ptr %2, align 8, !tbaa !19
  %4 = getelementptr inbounds nuw %struct.Vec_Int_t_, ptr %3, i32 0, i32 1
  %5 = load i32, ptr %4, align 4, !tbaa !26
  ret i32 %5
}

; Function Attrs: inlinehint nounwind uwtable
define internal void @Vec_IntClear(ptr noundef %0) #3 {
  %2 = alloca ptr, align 8
  store ptr %0, ptr %2, align 8, !tbaa !19
  %3 = load ptr, ptr %2, align 8, !tbaa !19
  %4 = getelementptr inbounds nuw %struct.Vec_Int_t_, ptr %3, i32 0, i32 1
  store i32 0, ptr %4, align 4, !tbaa !26
  ret void
}

; Function Attrs: inlinehint nounwind uwtable
define internal i32 @Abc_TtWordNum(i32 noundef %0) #3 {
  %2 = alloca i32, align 4
  store i32 %0, ptr %2, align 4, !tbaa !8
  %3 = load i32, ptr %2, align 4, !tbaa !8
  %4 = icmp sle i32 %3, 6
  br i1 %4, label %5, label %6

5:                                                ; preds = %1
  br label %10

6:                                                ; preds = %1
  %7 = load i32, ptr %2, align 4, !tbaa !8
  %8 = sub nsw i32 %7, 6
  %9 = shl i32 1, %8
  br label %10

10:                                               ; preds = %6, %5
  %11 = phi i32 [ 1, %5 ], [ %9, %6 ]
  ret i32 %11
}

; Function Attrs: nounwind uwtable
define i32 @Abc_TtGetCM4Pat(ptr noundef %0, i32 noundef %1, ptr noundef %2, ptr noundef %3, ptr noundef %4) #0 {
  %6 = alloca ptr, align 8
  %7 = alloca i32, align 4
  %8 = alloca ptr, align 8
  %9 = alloca ptr, align 8
  %10 = alloca ptr, align 8
  %11 = alloca ptr, align 8
  %12 = alloca i32, align 4
  %13 = alloca i32, align 4
  %14 = alloca i32, align 4
  %15 = alloca i32, align 4
  store ptr %0, ptr %6, align 8, !tbaa !3
  store i32 %1, ptr %7, align 4, !tbaa !8
  store ptr %2, ptr %8, align 8, !tbaa !17
  store ptr %3, ptr %9, align 8, !tbaa !19
  store ptr %4, ptr %10, align 8, !tbaa !3
  call void @llvm.lifetime.start.p0(i64 8, ptr %11) #12
  %16 = load ptr, ptr %6, align 8, !tbaa !3
  store ptr %16, ptr %11, align 8, !tbaa !30
  call void @llvm.lifetime.start.p0(i64 4, ptr %12) #12
  call void @llvm.lifetime.start.p0(i64 4, ptr %13) #12
  call void @llvm.lifetime.start.p0(i64 4, ptr %14) #12
  %17 = load i32, ptr %7, align 4, !tbaa !8
  %18 = sub nsw i32 %17, 4
  %19 = shl i32 1, %18
  store i32 %19, ptr %14, align 4, !tbaa !8
  call void @llvm.lifetime.start.p0(i64 4, ptr %15) #12
  %20 = load i32, ptr %7, align 4, !tbaa !8
  %21 = sub nsw i32 %20, 4
  %22 = call i32 @Abc_TtWordNum(i32 noundef %21)
  store i32 %22, ptr %15, align 4, !tbaa !8
  %23 = load ptr, ptr %9, align 8, !tbaa !19
  call void @Vec_IntClear(ptr noundef %23)
  store i32 0, ptr %12, align 4, !tbaa !8
  br label %24

24:                                               ; preds = %77, %5
  %25 = load i32, ptr %12, align 4, !tbaa !8
  %26 = load i32, ptr %14, align 4, !tbaa !8
  %27 = icmp slt i32 %25, %26
  br i1 %27, label %28, label %80

28:                                               ; preds = %24
  %29 = load ptr, ptr %8, align 8, !tbaa !17
  %30 = load ptr, ptr %11, align 8, !tbaa !30
  %31 = load i32, ptr %12, align 4, !tbaa !8
  %32 = sext i32 %31 to i64
  %33 = getelementptr inbounds i16, ptr %30, i64 %32
  %34 = load i16, ptr %33, align 2, !tbaa !32
  %35 = zext i16 %34 to i64
  %36 = getelementptr inbounds nuw i32, ptr %29, i64 %35
  %37 = load i32, ptr %36, align 4, !tbaa !8
  %38 = icmp eq i32 %37, -1
  br i1 %38, label %39, label %57

39:                                               ; preds = %28
  %40 = load ptr, ptr %9, align 8, !tbaa !19
  %41 = call i32 @Vec_IntSize(ptr noundef %40)
  %42 = load ptr, ptr %8, align 8, !tbaa !17
  %43 = load ptr, ptr %11, align 8, !tbaa !30
  %44 = load i32, ptr %12, align 4, !tbaa !8
  %45 = sext i32 %44 to i64
  %46 = getelementptr inbounds i16, ptr %43, i64 %45
  %47 = load i16, ptr %46, align 2, !tbaa !32
  %48 = zext i16 %47 to i64
  %49 = getelementptr inbounds nuw i32, ptr %42, i64 %48
  store i32 %41, ptr %49, align 4, !tbaa !8
  %50 = load ptr, ptr %9, align 8, !tbaa !19
  %51 = load ptr, ptr %11, align 8, !tbaa !30
  %52 = load i32, ptr %12, align 4, !tbaa !8
  %53 = sext i32 %52 to i64
  %54 = getelementptr inbounds i16, ptr %51, i64 %53
  %55 = load i16, ptr %54, align 2, !tbaa !32
  %56 = zext i16 %55 to i32
  call void @Vec_IntPush(ptr noundef %50, i32 noundef %56)
  br label %57

57:                                               ; preds = %39, %28
  %58 = load ptr, ptr %10, align 8, !tbaa !3
  %59 = icmp ne ptr %58, null
  br i1 %59, label %60, label %76

60:                                               ; preds = %57
  %61 = load ptr, ptr %10, align 8, !tbaa !3
  %62 = load i32, ptr %15, align 4, !tbaa !8
  %63 = load ptr, ptr %8, align 8, !tbaa !17
  %64 = load ptr, ptr %11, align 8, !tbaa !30
  %65 = load i32, ptr %12, align 4, !tbaa !8
  %66 = sext i32 %65 to i64
  %67 = getelementptr inbounds i16, ptr %64, i64 %66
  %68 = load i16, ptr %67, align 2, !tbaa !32
  %69 = zext i16 %68 to i64
  %70 = getelementptr inbounds nuw i32, ptr %63, i64 %69
  %71 = load i32, ptr %70, align 4, !tbaa !8
  %72 = mul nsw i32 %62, %71
  %73 = sext i32 %72 to i64
  %74 = getelementptr inbounds i64, ptr %61, i64 %73
  %75 = load i32, ptr %12, align 4, !tbaa !8
  call void @Abc_TtSetBit(ptr noundef %74, i32 noundef %75)
  br label %76

76:                                               ; preds = %60, %57
  br label %77

77:                                               ; preds = %76
  %78 = load i32, ptr %12, align 4, !tbaa !8
  %79 = add nsw i32 %78, 1
  store i32 %79, ptr %12, align 4, !tbaa !8
  br label %24, !llvm.loop !54

80:                                               ; preds = %24
  store i32 0, ptr %12, align 4, !tbaa !8
  br label %81

81:                                               ; preds = %97, %80
  %82 = load i32, ptr %12, align 4, !tbaa !8
  %83 = load ptr, ptr %9, align 8, !tbaa !19
  %84 = call i32 @Vec_IntSize(ptr noundef %83)
  %85 = icmp slt i32 %82, %84
  br i1 %85, label %86, label %90

86:                                               ; preds = %81
  %87 = load ptr, ptr %9, align 8, !tbaa !19
  %88 = load i32, ptr %12, align 4, !tbaa !8
  %89 = call i32 @Vec_IntEntry(ptr noundef %87, i32 noundef %88)
  store i32 %89, ptr %13, align 4, !tbaa !8
  br label %90

90:                                               ; preds = %86, %81
  %91 = phi i1 [ false, %81 ], [ true, %86 ]
  br i1 %91, label %92, label %100

92:                                               ; preds = %90
  %93 = load ptr, ptr %8, align 8, !tbaa !17
  %94 = load i32, ptr %13, align 4, !tbaa !8
  %95 = sext i32 %94 to i64
  %96 = getelementptr inbounds i32, ptr %93, i64 %95
  store i32 -1, ptr %96, align 4, !tbaa !8
  br label %97

97:                                               ; preds = %92
  %98 = load i32, ptr %12, align 4, !tbaa !8
  %99 = add nsw i32 %98, 1
  store i32 %99, ptr %12, align 4, !tbaa !8
  br label %81, !llvm.loop !55

100:                                              ; preds = %90
  %101 = load ptr, ptr %9, align 8, !tbaa !19
  %102 = call i32 @Vec_IntSize(ptr noundef %101)
  call void @llvm.lifetime.end.p0(i64 4, ptr %15) #12
  call void @llvm.lifetime.end.p0(i64 4, ptr %14) #12
  call void @llvm.lifetime.end.p0(i64 4, ptr %13) #12
  call void @llvm.lifetime.end.p0(i64 4, ptr %12) #12
  call void @llvm.lifetime.end.p0(i64 8, ptr %11) #12
  ret i32 %102
}