; Function Attrs: nounwind uwtable
define i32 @Abc_TtGetCM4Pat(ptr noundef readonly captures(none) %0, i32 noundef %1, ptr noundef captures(none) %2, ptr noundef captures(none) initializes((4, 8)) %3, ptr noundef %4) local_unnamed_addr #3 {
  %6 = add nsw i32 %1, -4
  %7 = getelementptr inbounds nuw i8, ptr %3, i64 4
  store i32 0, ptr %7, align 4, !tbaa !14
  %.not39 = icmp eq i32 %6, 31
  br i1 %.not39, label %.critedge, label %.lr.ph

.lr.ph:                                           ; preds = %5
  %8 = shl nuw i32 1, %6
  %.phi.trans.insert.i = getelementptr inbounds nuw i8, ptr %3, i64 8
  %.not = icmp eq ptr %4, null
  %9 = tail call i32 @llvm.smax.i32(i32 %1, i32 10)
  %10 = add nsw i32 %9, -10
  %smax = tail call i32 @llvm.smax.i32(i32 %8, i32 1)
  %wide.trip.count = zext nneg i32 %smax to i64
  br label %13

.preheader:                                       ; preds = %65
  %.val3236.pre = load i32, ptr %7, align 4, !tbaa !14
  %11 = icmp sgt i32 %.val3236.pre, 0
  br i1 %11, label %.lr.ph38, label %.critedge

.lr.ph38:                                         ; preds = %.preheader
  %12 = getelementptr i8, ptr %3, i64 8
  %.val34 = load ptr, ptr %12, align 8, !tbaa !18
  br label %66

13:                                               ; preds = %.lr.ph, %65
  %indvars.iv = phi i64 [ 0, %.lr.ph ], [ %indvars.iv.next, %65 ]
  %14 = getelementptr inbounds nuw i16, ptr %0, i64 %indvars.iv
  %15 = load i16, ptr %14, align 2, !tbaa !23
  %16 = zext i16 %15 to i64
  %17 = getelementptr inbounds nuw i32, ptr %2, i64 %16
  %18 = load i32, ptr %17, align 4, !tbaa !7
  %19 = icmp eq i32 %18, -1
  br i1 %19, label %20, label %49

20:                                               ; preds = %13
  %.val33 = load i32, ptr %7, align 4, !tbaa !14
  store i32 %.val33, ptr %17, align 4, !tbaa !7
  %21 = zext i16 %15 to i32
  %22 = load i32, ptr %3, align 8, !tbaa !20
  %23 = icmp eq i32 %.val33, %22
  br i1 %23, label %24, label %.Vec_IntGrow.exit10_crit_edge.i

.Vec_IntGrow.exit10_crit_edge.i:                  ; preds = %20
  %.pre.i = load ptr, ptr %.phi.trans.insert.i, align 8, !tbaa !18
  br label %Vec_IntPush.exit

24:                                               ; preds = %20
  %25 = icmp slt i32 %.val33, 16
  br i1 %25, label %26, label %33

26:                                               ; preds = %24
  %27 = load ptr, ptr %.phi.trans.insert.i, align 8, !tbaa !18
  %.not9.i.i = icmp eq ptr %27, null
  br i1 %.not9.i.i, label %30, label %28

28:                                               ; preds = %26
  %29 = tail call dereferenceable_or_null(64) ptr @realloc(ptr noundef nonnull %27, i64 noundef 64) #25
  br label %Vec_IntGrow.exit.i

30:                                               ; preds = %26
  %31 = tail call noalias dereferenceable_or_null(64) ptr @malloc(i64 noundef 64) #26
  br label %Vec_IntGrow.exit.i

Vec_IntGrow.exit.i:                               ; preds = %30, %28
  %32 = phi ptr [ %29, %28 ], [ %31, %30 ]
  store ptr %32, ptr %.phi.trans.insert.i, align 8, !tbaa !18
  store i32 16, ptr %3, align 8, !tbaa !20
  br label %Vec_IntPush.exit

33:                                               ; preds = %24
  %34 = shl nuw nsw i32 %.val33, 1
  %35 = load ptr, ptr %.phi.trans.insert.i, align 8, !tbaa !18
  %.not9.i9.i = icmp eq ptr %35, null
  %36 = zext nneg i32 %34 to i64
  %37 = shl nuw nsw i64 %36, 2
  br i1 %.not9.i9.i, label %40, label %38

38:                                               ; preds = %33
  %39 = tail call ptr @realloc(ptr noundef nonnull %35, i64 noundef %37) #25
  br label %42

40:                                               ; preds = %33
  %41 = tail call noalias ptr @malloc(i64 noundef %37) #26
  br label %42

42:                                               ; preds = %40, %38
  %43 = phi ptr [ %39, %38 ], [ %41, %40 ]
  store ptr %43, ptr %.phi.trans.insert.i, align 8, !tbaa !18
  store i32 %34, ptr %3, align 8, !tbaa !20
  br label %Vec_IntPush.exit

Vec_IntPush.exit:                                 ; preds = %.Vec_IntGrow.exit10_crit_edge.i, %Vec_IntGrow.exit.i, %42
  %44 = phi ptr [ %.pre.i, %.Vec_IntGrow.exit10_crit_edge.i ], [ %43, %42 ], [ %32, %Vec_IntGrow.exit.i ]
  %45 = load i32, ptr %7, align 4, !tbaa !14
  %46 = add nsw i32 %45, 1
  store i32 %46, ptr %7, align 4, !tbaa !14
  %47 = sext i32 %45 to i64
  %48 = getelementptr inbounds i32, ptr %44, i64 %47
  store i32 %21, ptr %48, align 4, !tbaa !7
  br label %49

49:                                               ; preds = %Vec_IntPush.exit, %13
  br i1 %.not, label %65, label %50

50:                                               ; preds = %49
  %51 = load i16, ptr %14, align 2, !tbaa !23
  %52 = zext i16 %51 to i64
  %53 = getelementptr inbounds nuw i32, ptr %2, i64 %52
  %54 = load i32, ptr %53, align 4, !tbaa !7
  %55 = shl i32 %54, %10
  %56 = sext i32 %55 to i64
  %57 = getelementptr inbounds i64, ptr %4, i64 %56
  %58 = and i64 %indvars.iv, 63
  %59 = shl nuw i64 1, %58
  %60 = lshr i64 %indvars.iv, 6
  %61 = and i64 %60, 67108863
  %62 = getelementptr inbounds nuw i64, ptr %57, i64 %61
  %63 = load i64, ptr %62, align 8, !tbaa !3
  %64 = or i64 %63, %59
  store i64 %64, ptr %62, align 8, !tbaa !3
  br label %65

65:                                               ; preds = %49, %50
  %indvars.iv.next = add nuw nsw i64 %indvars.iv, 1
  %exitcond.not = icmp eq i64 %indvars.iv.next, %wide.trip.count
  br i1 %exitcond.not, label %.preheader, label %13, !llvm.loop !44

66:                                               ; preds = %.lr.ph38, %66
  %indvars.iv42 = phi i64 [ 0, %.lr.ph38 ], [ %indvars.iv.next43, %66 ]
  %67 = getelementptr inbounds nuw i32, ptr %.val34, i64 %indvars.iv42
  %68 = load i32, ptr %67, align 4, !tbaa !7
  %69 = sext i32 %68 to i64
  %70 = getelementptr inbounds i32, ptr %2, i64 %69
  store i32 -1, ptr %70, align 4, !tbaa !7
  %indvars.iv.next43 = add nuw nsw i64 %indvars.iv42, 1
  %.val32 = load i32, ptr %7, align 4, !tbaa !14
  %71 = sext i32 %.val32 to i64
  %72 = icmp slt i64 %indvars.iv.next43, %71
  br i1 %72, label %66, label %.critedge, !llvm.loop !45

.critedge:                                        ; preds = %66, %5, %.preheader
  %.val32.lcssa = phi i32 [ %.val3236.pre, %.preheader ], [ 0, %5 ], [ %.val32, %66 ]
  ret i32 %.val32.lcssa
}